; Function Attrs: inlinehint null_pointer_is_valid sspstrong uwtable
define internal fastcc void @fill_manifest(ptr noundef %0) unnamed_addr #12 {
  %2 = alloca %struct.timespec, align 8
  call void @llvm.lifetime.start.p0(i64 16, ptr nonnull %2) #23
  %3 = call i32 @clock_gettime(i32 noundef 0, ptr noundef nonnull %2) #23
  %4 = icmp eq i32 %3, 0
  br i1 %4, label %get_timestamp.exit, label %5

5:                                                ; preds = %1
  %6 = call i64 @time(ptr noundef null) #23
  store i64 %6, ptr %2, align 8
  %7 = getelementptr inbounds nuw i8, ptr %2, i64 8
  store i64 -1, ptr %7, align 8
  br label %get_timestamp.exit

get_timestamp.exit:                               ; preds = %1, %5
  %8 = call ptr @ws_localtime_r(ptr noundef nonnull %2, ptr noundef %0)
  %9 = getelementptr inbounds nuw i8, ptr %2, i64 8
  %10 = load i64, ptr %9, align 8
  %11 = getelementptr inbounds nuw i8, ptr %0, i64 56
  store i64 %10, ptr %11, align 8
  %12 = call i32 @getpid() #23
  %13 = sext i32 %12 to i64
  %14 = getelementptr inbounds nuw i8, ptr %0, i64 64
  store i64 %13, ptr %14, align 8
  call void @llvm.lifetime.end.p0(i64 16, ptr nonnull %2) #23
  ret void
}